target datalayout = "e-m:e-p270:32:32-p271:32:32-p272:64:64-i64:64-i128:128-f80:128-n8:16:32:64-S128"
target triple = "x86_64-pc-linux-gnu"

; Function Attrs: alwaysinline nounwind willreturn memory(none) uwtable
define internal i32 @av_clip_uintp2_c(i32 noundef %0, i32 noundef %1) #9 {
  %3 = alloca i32, align 4
  %4 = alloca i32, align 4
  %5 = alloca i32, align 4
  store i32 %0, ptr %4, align 4, !tbaa !24
  store i32 %1, ptr %5, align 4, !tbaa !24
  %6 = load i32, ptr %4, align 4, !tbaa !24
  %7 = load i32, ptr %5, align 4, !tbaa !24
  %8 = shl i32 1, %7
  %9 = sub i32 %8, 1
  %10 = xor i32 %9, -1
  %11 = and i32 %6, %10
  %12 = icmp ne i32 %11, 0
  br i1 %12, label %13, label %21

13:                                               ; preds = %2
  %14 = load i32, ptr %4, align 4, !tbaa !24
  %15 = xor i32 %14, -1
  %16 = ashr i32 %15, 31
  %17 = load i32, ptr %5, align 4, !tbaa !24
  %18 = shl i32 1, %17
  %19 = sub i32 %18, 1
  %20 = and i32 %16, %19
  store i32 %20, ptr %3, align 4
  br label %23

21:                                               ; preds = %2
  %22 = load i32, ptr %4, align 4, !tbaa !24
  store i32 %22, ptr %3, align 4
  br label %23

23:                                               ; preds = %21, %13
  %24 = load i32, ptr %3, align 4
  ret i32 %24
}

; Function Attrs: nounwind uwtable
define internal void @limitdiff16(ptr noundef %0, ptr noundef %1, ptr noundef %2, ptr noundef %3, i32 noundef %4, i32 noundef %5, i32 noundef %6, i32 noundef %7) #2 {
  %9 = alloca ptr, align 8
  %10 = alloca ptr, align 8
  %11 = alloca ptr, align 8
  %12 = alloca ptr, align 8
  %13 = alloca i32, align 4
  %14 = alloca i32, align 4
  %15 = alloca i32, align 4
  %16 = alloca i32, align 4
  %17 = alloca ptr, align 8
  %18 = alloca ptr, align 8
  %19 = alloca ptr, align 8
  %20 = alloca ptr, align 8
  %21 = alloca i32, align 4
  %22 = alloca i32, align 4
  %23 = alloca i32, align 4
  store ptr %0, ptr %9, align 8, !tbaa !86
  store ptr %1, ptr %10, align 8, !tbaa !86
  store ptr %2, ptr %11, align 8, !tbaa !86
  store ptr %3, ptr %12, align 8, !tbaa !86
  store i32 %4, ptr %13, align 4, !tbaa !24
  store i32 %5, ptr %14, align 4, !tbaa !24
  store i32 %6, ptr %15, align 4, !tbaa !24
  store i32 %7, ptr %16, align 4, !tbaa !24
  call void @llvm.lifetime.start.p0(i64 8, ptr %17) #10
  %24 = load ptr, ptr %11, align 8, !tbaa !86
  store ptr %24, ptr %17, align 8, !tbaa !105
  call void @llvm.lifetime.start.p0(i64 8, ptr %18) #10
  %25 = load ptr, ptr %9, align 8, !tbaa !86
  store ptr %25, ptr %18, align 8, !tbaa !105
  call void @llvm.lifetime.start.p0(i64 8, ptr %19) #10
  %26 = load ptr, ptr %12, align 8, !tbaa !86
  store ptr %26, ptr %19, align 8, !tbaa !105
  call void @llvm.lifetime.start.p0(i64 8, ptr %20) #10
  %27 = load ptr, ptr %10, align 8, !tbaa !86
  store ptr %27, ptr %20, align 8, !tbaa !105
  call void @llvm.lifetime.start.p0(i64 4, ptr %21) #10
  store i32 0, ptr %21, align 4, !tbaa !24
  br label %28

28:                                               ; preds = %145, %8
  %29 = load i32, ptr %21, align 4, !tbaa !24
  %30 = load i32, ptr %15, align 4, !tbaa !24
  %31 = icmp slt i32 %29, %30
  br i1 %31, label %33, label %32

32:                                               ; preds = %28
  call void @llvm.lifetime.end.p0(i64 4, ptr %21) #10
  br label %148

33:                                               ; preds = %28
  call void @llvm.lifetime.start.p0(i64 4, ptr %22) #10
  %34 = load ptr, ptr %18, align 8, !tbaa !105
  %35 = load i32, ptr %21, align 4, !tbaa !24
  %36 = sext i32 %35 to i64
  %37 = getelementptr inbounds i16, ptr %34, i64 %36
  %38 = load i16, ptr %37, align 2, !tbaa !107
  %39 = zext i16 %38 to i32
  %40 = load ptr, ptr %17, align 8, !tbaa !105
  %41 = load i32, ptr %21, align 4, !tbaa !24
  %42 = sext i32 %41 to i64
  %43 = getelementptr inbounds i16, ptr %40, i64 %42
  %44 = load i16, ptr %43, align 2, !tbaa !107
  %45 = zext i16 %44 to i32
  %46 = sub nsw i32 %39, %45
  store i32 %46, ptr %22, align 4, !tbaa !24
  call void @llvm.lifetime.start.p0(i64 4, ptr %23) #10
  %47 = load ptr, ptr %18, align 8, !tbaa !105
  %48 = load i32, ptr %21, align 4, !tbaa !24
  %49 = sext i32 %48 to i64
  %50 = getelementptr inbounds i16, ptr %47, i64 %49
  %51 = load i16, ptr %50, align 2, !tbaa !107
  %52 = zext i16 %51 to i32
  %53 = load ptr, ptr %19, align 8, !tbaa !105
  %54 = load i32, ptr %21, align 4, !tbaa !24
  %55 = sext i32 %54 to i64
  %56 = getelementptr inbounds i16, ptr %53, i64 %55
  %57 = load i16, ptr %56, align 2, !tbaa !107
  %58 = zext i16 %57 to i32
  %59 = sub nsw i32 %52, %58
  %60 = icmp sge i32 %59, 0
  br i1 %60, label %61, label %75

61:                                               ; preds = %33
  %62 = load ptr, ptr %18, align 8, !tbaa !105
  %63 = load i32, ptr %21, align 4, !tbaa !24
  %64 = sext i32 %63 to i64
  %65 = getelementptr inbounds i16, ptr %62, i64 %64
  %66 = load i16, ptr %65, align 2, !tbaa !107
  %67 = zext i16 %66 to i32
  %68 = load ptr, ptr %19, align 8, !tbaa !105
  %69 = load i32, ptr %21, align 4, !tbaa !24
  %70 = sext i32 %69 to i64
  %71 = getelementptr inbounds i16, ptr %68, i64 %70
  %72 = load i16, ptr %71, align 2, !tbaa !107
  %73 = zext i16 %72 to i32
  %74 = sub nsw i32 %67, %73
  br label %90

75:                                               ; preds = %33
  %76 = load ptr, ptr %18, align 8, !tbaa !105
  %77 = load i32, ptr %21, align 4, !tbaa !24
  %78 = sext i32 %77 to i64
  %79 = getelementptr inbounds i16, ptr %76, i64 %78
  %80 = load i16, ptr %79, align 2, !tbaa !107
  %81 = zext i16 %80 to i32
  %82 = load ptr, ptr %19, align 8, !tbaa !105
  %83 = load i32, ptr %21, align 4, !tbaa !24
  %84 = sext i32 %83 to i64
  %85 = getelementptr inbounds i16, ptr %82, i64 %84
  %86 = load i16, ptr %85, align 2, !tbaa !107
  %87 = zext i16 %86 to i32
  %88 = sub nsw i32 %81, %87
  %89 = sub nsw i32 0, %88
  br label %90

90:                                               ; preds = %75, %61
  %91 = phi i32 [ %74, %61 ], [ %89, %75 ]
  store i32 %91, ptr %23, align 4, !tbaa !24
  %92 = load i32, ptr %23, align 4, !tbaa !24
  %93 = load i32, ptr %13, align 4, !tbaa !24
  %94 = icmp sle i32 %92, %93
  br i1 %94, label %95, label %105

95:                                               ; preds = %90
  %96 = load ptr, ptr %18, align 8, !tbaa !105
  %97 = load i32, ptr %21, align 4, !tbaa !24
  %98 = sext i32 %97 to i64
  %99 = getelementptr inbounds i16, ptr %96, i64 %98
  %100 = load i16, ptr %99, align 2, !tbaa !107
  %101 = load ptr, ptr %20, align 8, !tbaa !105
  %102 = load i32, ptr %21, align 4, !tbaa !24
  %103 = sext i32 %102 to i64
  %104 = getelementptr inbounds i16, ptr %101, i64 %103
  store i16 %100, ptr %104, align 2, !tbaa !107
  br label %144

105:                                              ; preds = %90
  %106 = load i32, ptr %23, align 4, !tbaa !24
  %107 = load i32, ptr %14, align 4, !tbaa !24
  %108 = icmp sge i32 %106, %107
  br i1 %108, label %109, label %119

109:                                              ; preds = %105
  %110 = load ptr, ptr %17, align 8, !tbaa !105
  %111 = load i32, ptr %21, align 4, !tbaa !24
  %112 = sext i32 %111 to i64
  %113 = getelementptr inbounds i16, ptr %110, i64 %112
  %114 = load i16, ptr %113, align 2, !tbaa !107
  %115 = load ptr, ptr %20, align 8, !tbaa !105
  %116 = load i32, ptr %21, align 4, !tbaa !24
  %117 = sext i32 %116 to i64
  %118 = getelementptr inbounds i16, ptr %115, i64 %117
  store i16 %114, ptr %118, align 2, !tbaa !107
  br label %143

119:                                              ; preds = %105
  %120 = load ptr, ptr %17, align 8, !tbaa !105
  %121 = load i32, ptr %21, align 4, !tbaa !24
  %122 = sext i32 %121 to i64
  %123 = getelementptr inbounds i16, ptr %120, i64 %122
  %124 = load i16, ptr %123, align 2, !tbaa !107
  %125 = zext i16 %124 to i32
  %126 = load i32, ptr %22, align 4, !tbaa !24
  %127 = load i32, ptr %14, align 4, !tbaa !24
  %128 = load i32, ptr %23, align 4, !tbaa !24
  %129 = sub nsw i32 %127, %128
  %130 = mul nsw i32 %126, %129
  %131 = load i32, ptr %14, align 4, !tbaa !24
  %132 = load i32, ptr %13, align 4, !tbaa !24
  %133 = sub nsw i32 %131, %132
  %134 = sdiv i32 %130, %133
  %135 = add nsw i32 %125, %134
  %136 = load i32, ptr %16, align 4, !tbaa !24
  %137 = call i32 @av_clip_uintp2_c(i32 noundef %135, i32 noundef %136) #12
  %138 = trunc i32 %137 to i16
  %139 = load ptr, ptr %20, align 8, !tbaa !105
  %140 = load i32, ptr %21, align 4, !tbaa !24
  %141 = sext i32 %140 to i64
  %142 = getelementptr inbounds i16, ptr %139, i64 %141
  store i16 %138, ptr %142, align 2, !tbaa !107
  br label %143

143:                                              ; preds = %119, %109
  br label %144

144:                                              ; preds = %143, %95
  call void @llvm.lifetime.end.p0(i64 4, ptr %23) #10
  call void @llvm.lifetime.end.p0(i64 4, ptr %22) #10
  br label %145

145:                                              ; preds = %144
  %146 = load i32, ptr %21, align 4, !tbaa !24
  %147 = add nsw i32 %146, 1
  store i32 %147, ptr %21, align 4, !tbaa !24
  br label %28, !llvm.loop !109

148:                                              ; preds = %32
  call void @llvm.lifetime.end.p0(i64 8, ptr %20) #10
  call void @llvm.lifetime.end.p0(i64 8, ptr %19) #10
  call void @llvm.lifetime.end.p0(i64 8, ptr %18) #10
  call void @llvm.lifetime.end.p0(i64 8, ptr %17) #10
  ret void
}