; Function Attrs: nofree norecurse nosync nounwind memory(argmem: readwrite) uwtable
define internal void @limitdiff16(ptr noundef readonly captures(none) %0, ptr noundef writeonly captures(none) %1, ptr noundef readonly captures(none) %2, ptr noundef readonly captures(none) %3, i32 noundef %4, i32 noundef %5, i32 noundef %6, i32 noundef %7) #7 {
  %9 = icmp sgt i32 %6, 0
  br i1 %9, label %.lr.ph, label %._crit_edge

.lr.ph:                                           ; preds = %8
  %10 = sub nsw i32 %5, %4
  %notmask.i = shl nsw i32 -1, %7
  %11 = xor i32 %notmask.i, -1
  %wide.trip.count = zext nneg i32 %6 to i64
  br label %12

._crit_edge:                                      ; preds = %34, %8
  ret void

12:                                               ; preds = %.lr.ph, %34
  %indvars.iv = phi i64 [ 0, %.lr.ph ], [ %indvars.iv.next, %34 ]
  %13 = getelementptr inbounds nuw i16, ptr %0, i64 %indvars.iv
  %14 = load i16, ptr %13, align 2, !tbaa !90
  %15 = zext i16 %14 to i32
  %16 = getelementptr inbounds nuw i16, ptr %2, i64 %indvars.iv
  %17 = load i16, ptr %16, align 2, !tbaa !90
  %18 = zext i16 %17 to i32
  %19 = sub nsw i32 %15, %18
  %20 = getelementptr inbounds nuw i16, ptr %3, i64 %indvars.iv
  %21 = load i16, ptr %20, align 2, !tbaa !90
  %22 = zext i16 %21 to i32
  %23 = sub nsw i32 %15, %22
  %24 = tail call i32 @llvm.abs.i32(i32 %23, i1 true)
  %.not = icmp sgt i32 %24, %4
  br i1 %.not, label %25, label %34

25:                                               ; preds = %12
  %.not48 = icmp slt i32 %24, %5
  br i1 %.not48, label %26, label %34

26:                                               ; preds = %25
  %27 = sub nsw i32 %5, %24
  %28 = mul nsw i32 %27, %19
  %29 = sdiv i32 %28, %10
  %30 = add nsw i32 %29, %18
  %31 = and i32 %30, %notmask.i
  %.not.i = icmp eq i32 %31, 0
  %isnotneg.inv.i = icmp slt i32 %30, 0
  %32 = select i1 %isnotneg.inv.i, i32 0, i32 %11
  %.0.i = select i1 %.not.i, i32 %30, i32 %32
  %33 = trunc i32 %.0.i to i16
  br label %34

34:                                               ; preds = %25, %12, %26
  %.sink = phi i16 [ %33, %26 ], [ %14, %12 ], [ %17, %25 ]
  %35 = getelementptr inbounds nuw i16, ptr %1, i64 %indvars.iv
  store i16 %.sink, ptr %35, align 2, !tbaa !90
  %indvars.iv.next = add nuw nsw i64 %indvars.iv, 1
  %exitcond.not = icmp eq i64 %indvars.iv.next, %wide.trip.count
  br i1 %exitcond.not, label %._crit_edge, label %12, !llvm.loop !92
}